target datalayout = "e-m:e-p270:32:32-p271:32:32-p272:64:64-i64:64-i128:128-f80:128-n8:16:32:64-S128"
target triple = "x86_64-pc-linux-gnu"

%"class.std::__cxx11::basic_string" = type { %"struct.std::__cxx11::basic_string<char>::_Alloc_hider", i64, %union.anon }
%"struct.std::__cxx11::basic_string<char>::_Alloc_hider" = type { ptr }
%union.anon = type { i64, [8 x i8] }
%"struct.colvardeps::feature_state" = type { i8, i8, i32, %"class.std::vector.3" }
%"class.std::vector.3" = type { %"struct.std::_Vector_base.4" }
%"struct.std::_Vector_base.4" = type { %"struct.std::_Vector_base<int, std::allocator<int>>::_Vector_impl" }
%"struct.std::_Vector_base<int, std::allocator<int>>::_Vector_impl" = type { %"struct.std::_Vector_base<int, std::allocator<int>>::_Vector_impl_data" }
%"struct.std::_Vector_base<int, std::allocator<int>>::_Vector_impl_data" = type { ptr, ptr, ptr }
%class.colvardeps = type { ptr, %"class.std::__cxx11::basic_string", i32, %"class.std::vector.54", %"class.std::vector.59", %"class.std::vector.59" }
%"class.std::vector.54" = type { %"struct.std::_Vector_base.55" }
%"struct.std::_Vector_base.55" = type { %"struct.std::_Vector_base<colvardeps::feature_state, std::allocator<colvardeps::feature_state>>::_Vector_impl" }
%"struct.std::_Vector_base<colvardeps::feature_state, std::allocator<colvardeps::feature_state>>::_Vector_impl" = type { %"struct.std::_Vector_base<colvardeps::feature_state, std::allocator<colvardeps::feature_state>>::_Vector_impl_data" }
%"struct.std::_Vector_base<colvardeps::feature_state, std::allocator<colvardeps::feature_state>>::_Vector_impl_data" = type { ptr, ptr, ptr }
%"class.std::vector.59" = type { %"struct.std::_Vector_base.60" }
%"struct.std::_Vector_base.60" = type { %"struct.std::_Vector_base<colvardeps *, std::allocator<colvardeps *>>::_Vector_impl" }
%"struct.std::_Vector_base<colvardeps *, std::allocator<colvardeps *>>::_Vector_impl" = type { %"struct.std::_Vector_base<colvardeps *, std::allocator<colvardeps *>>::_Vector_impl_data" }
%"struct.std::_Vector_base<colvardeps *, std::allocator<colvardeps *>>::_Vector_impl_data" = type { ptr, ptr, ptr }
%"class.colvarmodule::rvector" = type { double, double, double }
%"class.colvarmodule::atom_group" = type { %class.colvarparse, %class.colvardeps, %"class.std::__cxx11::basic_string", %"class.std::__cxx11::basic_string", %"class.std::vector.64", %"class.std::vector.3", %"class.std::vector.3", %"class.std::vector.3", %"class.colvarmodule::rvector", i32, i8, %"class.colvarmodule::rotation", ptr, i8, %"class.std::vector.18", %"class.colvarmodule::rvector", ptr, double, double, i8, %"class.colvarmodule::rvector", %"class.colvarmodule::rvector", %"class.colvarmodule::rvector", %"class.colvarmodule::rvector", %"class.colvarmodule::rvector", %"class.std::vector.18" }
%class.colvarparse = type { %class.colvarparams, %"class.std::__cxx11::basic_string", %"class.std::__cxx11::basic_string", %"class.std::__cxx11::list", %"class.std::map.44", %"class.std::__cxx11::list.49", %"class.std::__cxx11::list.49", %"class.std::__cxx11::basic_string" }
%class.colvarparams = type { ptr, %"class.std::map.31", %"class.std::map.36" }
%"class.std::map.31" = type { %"class.std::_Rb_tree.32" }
%"class.std::_Rb_tree.32" = type { %"struct.std::_Rb_tree<std::__cxx11::basic_string<char>, std::pair<const std::__cxx11::basic_string<char>, const void *>, std::_Select1st<std::pair<const std::__cxx11::basic_string<char>, const void *>>, std::less<std::__cxx11::basic_string<char>>>::_Rb_tree_impl" }
%"struct.std::_Rb_tree<std::__cxx11::basic_string<char>, std::pair<const std::__cxx11::basic_string<char>, const void *>, std::_Select1st<std::pair<const std::__cxx11::basic_string<char>, const void *>>, std::less<std::__cxx11::basic_string<char>>>::_Rb_tree_impl" = type { %"struct.std::_Rb_tree_key_compare", %"struct.std::_Rb_tree_header" }
%"struct.std::_Rb_tree_key_compare" = type { %"struct.std::less" }
%"struct.std::less" = type { i8 }
%"struct.std::_Rb_tree_header" = type { %"struct.std::_Rb_tree_node_base", i64 }
%"struct.std::_Rb_tree_node_base" = type { i32, ptr, ptr, ptr }
%"class.std::map.36" = type { %"class.std::_Rb_tree.37" }
%"class.std::_Rb_tree.37" = type { %"struct.std::_Rb_tree<std::__cxx11::basic_string<char>, std::pair<const std::__cxx11::basic_string<char>, const colvarvalue *>, std::_Select1st<std::pair<const std::__cxx11::basic_string<char>, const colvarvalue *>>, std::less<std::__cxx11::basic_string<char>>>::_Rb_tree_impl" }
%"struct.std::_Rb_tree<std::__cxx11::basic_string<char>, std::pair<const std::__cxx11::basic_string<char>, const colvarvalue *>, std::_Select1st<std::pair<const std::__cxx11::basic_string<char>, const colvarvalue *>>, std::less<std::__cxx11::basic_string<char>>>::_Rb_tree_impl" = type { %"struct.std::_Rb_tree_key_compare", %"struct.std::_Rb_tree_header" }
%"class.std::__cxx11::list" = type { %"class.std::__cxx11::_List_base" }
%"class.std::__cxx11::_List_base" = type { %"struct.std::__cxx11::_List_base<std::__cxx11::basic_string<char>, std::allocator<std::__cxx11::basic_string<char>>>::_List_impl" }
%"struct.std::__cxx11::_List_base<std::__cxx11::basic_string<char>, std::allocator<std::__cxx11::basic_string<char>>>::_List_impl" = type { %"struct.std::__detail::_List_node_header" }
%"struct.std::__detail::_List_node_header" = type { %"struct.std::__detail::_List_node_base", i64 }
%"struct.std::__detail::_List_node_base" = type { ptr, ptr }
%"class.std::map.44" = type { %"class.std::_Rb_tree.45" }
%"class.std::_Rb_tree.45" = type { %"struct.std::_Rb_tree<std::__cxx11::basic_string<char>, std::pair<const std::__cxx11::basic_string<char>, colvarparse::key_set_mode>, std::_Select1st<std::pair<const std::__cxx11::basic_string<char>, colvarparse::key_set_mode>>, std::less<std::__cxx11::basic_string<char>>>::_Rb_tree_impl" }
%"struct.std::_Rb_tree<std::__cxx11::basic_string<char>, std::pair<const std::__cxx11::basic_string<char>, colvarparse::key_set_mode>, std::_Select1st<std::pair<const std::__cxx11::basic_string<char>, colvarparse::key_set_mode>>, std::less<std::__cxx11::basic_string<char>>>::_Rb_tree_impl" = type { %"struct.std::_Rb_tree_key_compare", %"struct.std::_Rb_tree_header" }
%"class.std::__cxx11::list.49" = type { %"class.std::__cxx11::_List_base.50" }
%"class.std::__cxx11::_List_base.50" = type { %"struct.std::__cxx11::_List_base<unsigned long, std::allocator<unsigned long>>::_List_impl" }
%"struct.std::__cxx11::_List_base<unsigned long, std::allocator<unsigned long>>::_List_impl" = type { %"struct.std::__detail::_List_node_header" }
%"class.std::vector.64" = type { %"struct.std::_Vector_base.65" }
%"struct.std::_Vector_base.65" = type { %"struct.std::_Vector_base<colvarmodule::atom, std::allocator<colvarmodule::atom>>::_Vector_impl" }
%"struct.std::_Vector_base<colvarmodule::atom, std::allocator<colvarmodule::atom>>::_Vector_impl" = type { %"struct.std::_Vector_base<colvarmodule::atom, std::allocator<colvarmodule::atom>>::_Vector_impl_data" }
%"struct.std::_Vector_base<colvarmodule::atom, std::allocator<colvarmodule::atom>>::_Vector_impl_data" = type { ptr, ptr, ptr }
%"class.colvarmodule::rotation" = type { %"class.colvarmodule::rmatrix", [4 x [4 x double]], [4 x double], [4 x [4 x double]], [4 x [4 x double]], i8, %"class.colvarmodule::quaternion", %"class.colvarmodule::quaternion", ptr }
%"class.colvarmodule::rmatrix" = type { double, double, double, double, double, double, double, double, double }
%"class.colvarmodule::quaternion" = type { double, double, double, double }
%"class.std::vector.18" = type { %"struct.std::_Vector_base.19" }
%"struct.std::_Vector_base.19" = type { %"struct.std::_Vector_base<colvarmodule::rvector, std::allocator<colvarmodule::rvector>>::_Vector_impl" }
%"struct.std::_Vector_base<colvarmodule::rvector, std::allocator<colvarmodule::rvector>>::_Vector_impl" = type { %"struct.std::_Vector_base<colvarmodule::rvector, std::allocator<colvarmodule::rvector>>::_Vector_impl_data" }
%"struct.std::_Vector_base<colvarmodule::rvector, std::allocator<colvarmodule::rvector>>::_Vector_impl_data" = type { ptr, ptr, ptr }
%"class.colvarmodule::atom" = type { i32, i32, double, double, %"class.colvarmodule::rvector", %"class.colvarmodule::rvector", %"class.colvarmodule::rvector", %"class.colvarmodule::rvector" }
%"class.__gnu_cxx::__normal_iterator.69" = type { ptr }

; Function Attrs: mustprogress nounwind uwtable
define linkonce_odr void @_ZN12colvarmodule7rvector3setEddd(ptr noundef nonnull align 8 dereferenceable(24) %0, double noundef %1, double noundef %2, double noundef %3) #1 comdat align 2 {
  %5 = alloca ptr, align 8
  %6 = alloca double, align 8
  %7 = alloca double, align 8
  %8 = alloca double, align 8
  store ptr %0, ptr %5, align 8
  store double %1, ptr %6, align 8
  store double %2, ptr %7, align 8
  store double %3, ptr %8, align 8
  %9 = load ptr, ptr %5, align 8
  %10 = load double, ptr %6, align 8
  %11 = getelementptr inbounds %"class.colvarmodule::rvector", ptr %9, i32 0, i32 0
  store double %10, ptr %11, align 8
  %12 = load double, ptr %7, align 8
  %13 = getelementptr inbounds %"class.colvarmodule::rvector", ptr %9, i32 0, i32 1
  store double %12, ptr %13, align 8
  %14 = load double, ptr %8, align 8
  %15 = getelementptr inbounds %"class.colvarmodule::rvector", ptr %9, i32 0, i32 2
  store double %14, ptr %15, align 8
  ret void
}

; Function Attrs: mustprogress nounwind uwtable
define linkonce_odr void @_ZN9__gnu_cxx17__normal_iteratorIPN12colvarmodule4atomESt6vectorIS2_SaIS2_EEEC2ERKS3_(ptr noundef nonnull align 8 dereferenceable(8) %0, ptr noundef nonnull align 8 dereferenceable(8) %1) unnamed_addr #1 comdat align 2 {
  %3 = alloca ptr, align 8
  %4 = alloca ptr, align 8
  store ptr %0, ptr %3, align 8
  store ptr %1, ptr %4, align 8
  %5 = load ptr, ptr %3, align 8
  %6 = getelementptr inbounds %"class.__gnu_cxx::__normal_iterator.69", ptr %5, i32 0, i32 0
  %7 = load ptr, ptr %4, align 8
  %8 = load ptr, ptr %7, align 8
  store ptr %8, ptr %6, align 8
  ret void
}

; Function Attrs: mustprogress uwtable
define linkonce_odr void @_ZN12colvarmodule7rvectorC2Eddd(ptr noundef nonnull align 8 dereferenceable(24) %0, double noundef %1, double noundef %2, double noundef %3) unnamed_addr #2 comdat align 2 {
  %5 = alloca ptr, align 8
  %6 = alloca double, align 8
  %7 = alloca double, align 8
  %8 = alloca double, align 8
  store ptr %0, ptr %5, align 8
  store double %1, ptr %6, align 8
  store double %2, ptr %7, align 8
  store double %3, ptr %8, align 8
  %9 = load ptr, ptr %5, align 8
  %10 = load double, ptr %6, align 8
  %11 = load double, ptr %7, align 8
  %12 = load double, ptr %8, align 8
  call void @_ZN12colvarmodule7rvector3setEddd(ptr noundef nonnull align 8 dereferenceable(24) %9, double noundef %10, double noundef %11, double noundef %12)
  ret void
}

; Function Attrs: mustprogress nounwind uwtable
define linkonce_odr noundef nonnull align 8 dereferenceable(8) ptr @_ZNK9__gnu_cxx17__normal_iteratorIPN12colvarmodule4atomESt6vectorIS2_SaIS2_EEE4baseEv(ptr noundef nonnull align 8 dereferenceable(8) %0) #1 comdat align 2 {
  %2 = alloca ptr, align 8
  store ptr %0, ptr %2, align 8
  %3 = load ptr, ptr %2, align 8
  %4 = getelementptr inbounds %"class.__gnu_cxx::__normal_iterator.69", ptr %3, i32 0, i32 0
  ret ptr %4
}

; Function Attrs: mustprogress nounwind uwtable
define linkonce_odr ptr @_ZNSt6vectorIN12colvarmodule4atomESaIS1_EE3endEv(ptr noundef nonnull align 8 dereferenceable(24) %0) #1 comdat align 2 {
  %2 = alloca %"class.__gnu_cxx::__normal_iterator.69", align 8
  %3 = alloca ptr, align 8
  store ptr %0, ptr %3, align 8
  %4 = load ptr, ptr %3, align 8
  %5 = getelementptr inbounds %"struct.std::_Vector_base.65", ptr %4, i32 0, i32 0
  %6 = getelementptr inbounds %"struct.std::_Vector_base<colvarmodule::atom, std::allocator<colvarmodule::atom>>::_Vector_impl_data", ptr %5, i32 0, i32 1
  call void @_ZN9__gnu_cxx17__normal_iteratorIPN12colvarmodule4atomESt6vectorIS2_SaIS2_EEEC2ERKS3_(ptr noundef nonnull align 8 dereferenceable(8) %2, ptr noundef nonnull align 8 dereferenceable(8) %6) #15
  %7 = getelementptr inbounds %"class.__gnu_cxx::__normal_iterator.69", ptr %2, i32 0, i32 0
  %8 = load ptr, ptr %7, align 8
  ret ptr %8
}

; Function Attrs: mustprogress nounwind uwtable
define linkonce_odr ptr @_ZNSt6vectorIN12colvarmodule4atomESaIS1_EE5beginEv(ptr noundef nonnull align 8 dereferenceable(24) %0) #1 comdat align 2 {
  %2 = alloca %"class.__gnu_cxx::__normal_iterator.69", align 8
  %3 = alloca ptr, align 8
  store ptr %0, ptr %3, align 8
  %4 = load ptr, ptr %3, align 8
  %5 = getelementptr inbounds %"struct.std::_Vector_base.65", ptr %4, i32 0, i32 0
  %6 = getelementptr inbounds %"struct.std::_Vector_base<colvarmodule::atom, std::allocator<colvarmodule::atom>>::_Vector_impl_data", ptr %5, i32 0, i32 0
  call void @_ZN9__gnu_cxx17__normal_iteratorIPN12colvarmodule4atomESt6vectorIS2_SaIS2_EEEC2ERKS3_(ptr noundef nonnull align 8 dereferenceable(8) %2, ptr noundef nonnull align 8 dereferenceable(8) %6) #15
  %7 = getelementptr inbounds %"class.__gnu_cxx::__normal_iterator.69", ptr %2, i32 0, i32 0
  %8 = load ptr, ptr %7, align 8
  ret ptr %8
}

; Function Attrs: mustprogress nounwind uwtable
define linkonce_odr noundef nonnull align 8 dereferenceable(32) ptr @_ZNKSt6vectorIN10colvardeps13feature_stateESaIS1_EEixEm(ptr noundef nonnull align 8 dereferenceable(24) %0, i64 noundef %1) #1 comdat align 2 {
  %3 = alloca ptr, align 8
  %4 = alloca i64, align 8
  store ptr %0, ptr %3, align 8
  store i64 %1, ptr %4, align 8
  %5 = load ptr, ptr %3, align 8
  %6 = getelementptr inbounds %"struct.std::_Vector_base.55", ptr %5, i32 0, i32 0
  %7 = getelementptr inbounds %"struct.std::_Vector_base<colvardeps::feature_state, std::allocator<colvardeps::feature_state>>::_Vector_impl_data", ptr %6, i32 0, i32 0
  %8 = load ptr, ptr %7, align 8
  %9 = load i64, ptr %4, align 8
  %10 = getelementptr inbounds %"struct.colvardeps::feature_state", ptr %8, i64 %9
  ret ptr %10
}

; Function Attrs: mustprogress nounwind uwtable
define linkonce_odr ptr @_ZN9__gnu_cxx17__normal_iteratorIPN12colvarmodule4atomESt6vectorIS2_SaIS2_EEEppEi(ptr noundef nonnull align 8 dereferenceable(8) %0, i32 noundef %1) #1 comdat align 2 {
  %3 = alloca %"class.__gnu_cxx::__normal_iterator.69", align 8
  %4 = alloca ptr, align 8
  %5 = alloca i32, align 4
  %6 = alloca ptr, align 8
  store ptr %0, ptr %4, align 8
  store i32 %1, ptr %5, align 4
  %7 = load ptr, ptr %4, align 8
  %8 = getelementptr inbounds %"class.__gnu_cxx::__normal_iterator.69", ptr %7, i32 0, i32 0
  %9 = load ptr, ptr %8, align 8
  %10 = getelementptr inbounds %"class.colvarmodule::atom", ptr %9, i32 1
  store ptr %10, ptr %8, align 8
  store ptr %9, ptr %6, align 8
  call void @_ZN9__gnu_cxx17__normal_iteratorIPN12colvarmodule4atomESt6vectorIS2_SaIS2_EEEC2ERKS3_(ptr noundef nonnull align 8 dereferenceable(8) %3, ptr noundef nonnull align 8 dereferenceable(8) %6) #15
  %11 = getelementptr inbounds %"class.__gnu_cxx::__normal_iterator.69", ptr %3, i32 0, i32 0
  %12 = load ptr, ptr %11, align 8
  ret ptr %12
}

; Function Attrs: mustprogress uwtable
define linkonce_odr void @_ZmldRKN12colvarmodule7rvectorE(ptr dead_on_unwind noalias writable sret(%"class.colvarmodule::rvector") align 8 %0, double noundef %1, ptr noundef nonnull align 8 dereferenceable(24) %2) #2 comdat {
  %4 = alloca double, align 8
  %5 = alloca ptr, align 8
  store double %1, ptr %4, align 8
  store ptr %2, ptr %5, align 8
  %6 = load double, ptr %4, align 8
  %7 = load ptr, ptr %5, align 8
  %8 = getelementptr inbounds %"class.colvarmodule::rvector", ptr %7, i32 0, i32 0
  %9 = load double, ptr %8, align 8
  %10 = fmul double %6, %9
  %11 = load double, ptr %4, align 8
  %12 = load ptr, ptr %5, align 8
  %13 = getelementptr inbounds %"class.colvarmodule::rvector", ptr %12, i32 0, i32 1
  %14 = load double, ptr %13, align 8
  %15 = fmul double %11, %14
  %16 = load double, ptr %4, align 8
  %17 = load ptr, ptr %5, align 8
  %18 = getelementptr inbounds %"class.colvarmodule::rvector", ptr %17, i32 0, i32 2
  %19 = load double, ptr %18, align 8
  %20 = fmul double %16, %19
  call void @_ZN12colvarmodule7rvectorC2Eddd(ptr noundef nonnull align 8 dereferenceable(24) %0, double noundef %10, double noundef %15, double noundef %20)
  ret void
}

; Function Attrs: mustprogress nounwind uwtable
define linkonce_odr noundef ptr @_ZNK9__gnu_cxx17__normal_iteratorIPN12colvarmodule4atomESt6vectorIS2_SaIS2_EEEptEv(ptr noundef nonnull align 8 dereferenceable(8) %0) #1 comdat align 2 {
  %2 = alloca ptr, align 8
  store ptr %0, ptr %2, align 8
  %3 = load ptr, ptr %2, align 8
  %4 = getelementptr inbounds %"class.__gnu_cxx::__normal_iterator.69", ptr %3, i32 0, i32 0
  %5 = load ptr, ptr %4, align 8
  ret ptr %5
}

; Function Attrs: mustprogress nounwind uwtable
define linkonce_odr noundef zeroext i1 @_ZN9__gnu_cxxneIPN12colvarmodule4atomESt6vectorIS2_SaIS2_EEEEbRKNS_17__normal_iteratorIT_T0_EESC_(ptr noundef nonnull align 8 dereferenceable(8) %0, ptr noundef nonnull align 8 dereferenceable(8) %1) #1 comdat {
  %3 = alloca ptr, align 8
  %4 = alloca ptr, align 8
  store ptr %0, ptr %3, align 8
  store ptr %1, ptr %4, align 8
  %5 = load ptr, ptr %3, align 8
  %6 = call noundef nonnull align 8 dereferenceable(8) ptr @_ZNK9__gnu_cxx17__normal_iteratorIPN12colvarmodule4atomESt6vectorIS2_SaIS2_EEE4baseEv(ptr noundef nonnull align 8 dereferenceable(8) %5) #15
  %7 = load ptr, ptr %6, align 8
  %8 = load ptr, ptr %4, align 8
  %9 = call noundef nonnull align 8 dereferenceable(8) ptr @_ZNK9__gnu_cxx17__normal_iteratorIPN12colvarmodule4atomESt6vectorIS2_SaIS2_EEE4baseEv(ptr noundef nonnull align 8 dereferenceable(8) %8) #15
  %10 = load ptr, ptr %9, align 8
  %11 = icmp ne ptr %7, %10
  ret i1 %11
}

; Function Attrs: mustprogress nounwind uwtable
define linkonce_odr ptr @_ZN12colvarmodule10atom_group3endEv(ptr noundef nonnull align 8 dereferenceable(1440) %0) #1 comdat align 2 {
  %2 = alloca %"class.__gnu_cxx::__normal_iterator.69", align 8
  %3 = alloca ptr, align 8
  store ptr %0, ptr %3, align 8
  %4 = load ptr, ptr %3, align 8
  %5 = getelementptr inbounds %"class.colvarmodule::atom_group", ptr %4, i32 0, i32 4
  %6 = call ptr @_ZNSt6vectorIN12colvarmodule4atomESaIS1_EE3endEv(ptr noundef nonnull align 8 dereferenceable(24) %5) #15
  %7 = getelementptr inbounds %"class.__gnu_cxx::__normal_iterator.69", ptr %2, i32 0, i32 0
  store ptr %6, ptr %7, align 8
  %8 = getelementptr inbounds %"class.__gnu_cxx::__normal_iterator.69", ptr %2, i32 0, i32 0
  %9 = load ptr, ptr %8, align 8
  ret ptr %9
}

; Function Attrs: mustprogress nounwind uwtable
define linkonce_odr ptr @_ZN12colvarmodule10atom_group5beginEv(ptr noundef nonnull align 8 dereferenceable(1440) %0) #1 comdat align 2 {
  %2 = alloca %"class.__gnu_cxx::__normal_iterator.69", align 8
  %3 = alloca ptr, align 8
  store ptr %0, ptr %3, align 8
  %4 = load ptr, ptr %3, align 8
  %5 = getelementptr inbounds %"class.colvarmodule::atom_group", ptr %4, i32 0, i32 4
  %6 = call ptr @_ZNSt6vectorIN12colvarmodule4atomESaIS1_EE5beginEv(ptr noundef nonnull align 8 dereferenceable(24) %5) #15
  %7 = getelementptr inbounds %"class.__gnu_cxx::__normal_iterator.69", ptr %2, i32 0, i32 0
  store ptr %6, ptr %7, align 8
  %8 = getelementptr inbounds %"class.__gnu_cxx::__normal_iterator.69", ptr %2, i32 0, i32 0
  %9 = load ptr, ptr %8, align 8
  ret ptr %9
}

; Function Attrs: mustprogress nounwind uwtable
define linkonce_odr noundef zeroext i1 @_ZNK10colvardeps10is_enabledEi(ptr noundef nonnull align 8 dereferenceable(120) %0, i32 noundef %1) #1 comdat align 2 {
  %3 = alloca ptr, align 8
  %4 = alloca i32, align 4
  store ptr %0, ptr %3, align 8
  store i32 %1, ptr %4, align 4
  %5 = load ptr, ptr %3, align 8
  %6 = getelementptr inbounds %class.colvardeps, ptr %5, i32 0, i32 3
  %7 = load i32, ptr %4, align 4
  %8 = sext i32 %7 to i64
  %9 = call noundef nonnull align 8 dereferenceable(32) ptr @_ZNKSt6vectorIN10colvardeps13feature_stateESaIS1_EEixEm(ptr noundef nonnull align 8 dereferenceable(24) %6, i64 noundef %8) #15
  %10 = getelementptr inbounds %"struct.colvardeps::feature_state", ptr %9, i32 0, i32 1
  %11 = load i8, ptr %10, align 1
  %12 = trunc i8 %11 to i1
  ret i1 %12
}

; Function Attrs: mustprogress uwtable
define void @_ZN12colvarmodule10atom_group21set_weighted_gradientERKNS_7rvectorE(ptr noundef nonnull align 8 dereferenceable(1440) %0, ptr noundef nonnull align 8 dereferenceable(24) %1) #2 align 2 {
  %3 = alloca ptr, align 8
  %4 = alloca ptr, align 8
  %5 = alloca %"class.__gnu_cxx::__normal_iterator.69", align 8
  %6 = alloca %"class.__gnu_cxx::__normal_iterator.69", align 8
  %7 = alloca %"class.colvarmodule::rvector", align 8
  %8 = alloca %"class.__gnu_cxx::__normal_iterator.69", align 8
  store ptr %0, ptr %3, align 8
  store ptr %1, ptr %4, align 8
  %9 = load ptr, ptr %3, align 8
  %10 = getelementptr inbounds %"class.colvarmodule::atom_group", ptr %9, i32 0, i32 10
  %11 = load i8, ptr %10, align 4
  %12 = trunc i8 %11 to i1
  br i1 %12, label %13, label %14

13:                                               ; preds = %2
  br label %40

14:                                               ; preds = %2
  %15 = load ptr, ptr %4, align 8
  %16 = getelementptr inbounds %"class.colvarmodule::atom_group", ptr %9, i32 0, i32 23
  call void @llvm.memcpy.p0.p0.i64(ptr align 8 %16, ptr align 8 %15, i64 24, i1 false)
  %17 = getelementptr inbounds i8, ptr %9, i64 320
  %18 = call noundef zeroext i1 @_ZNK10colvardeps10is_enabledEi(ptr noundef nonnull align 8 dereferenceable(120) %17, i32 noundef 8)
  br i1 %18, label %40, label %19

19:                                               ; preds = %14
  %20 = call ptr @_ZN12colvarmodule10atom_group5beginEv(ptr noundef nonnull align 8 dereferenceable(1440) %9)
  %21 = getelementptr inbounds %"class.__gnu_cxx::__normal_iterator.69", ptr %5, i32 0, i32 0
  store ptr %20, ptr %21, align 8
  br label %22

22:                                               ; preds = %36, %19
  %23 = call ptr @_ZN12colvarmodule10atom_group3endEv(ptr noundef nonnull align 8 dereferenceable(1440) %9)
  %24 = getelementptr inbounds %"class.__gnu_cxx::__normal_iterator.69", ptr %6, i32 0, i32 0
  store ptr %23, ptr %24, align 8
  %25 = call noundef zeroext i1 @_ZN9__gnu_cxxneIPN12colvarmodule4atomESt6vectorIS2_SaIS2_EEEEbRKNS_17__normal_iteratorIT_T0_EESC_(ptr noundef nonnull align 8 dereferenceable(8) %5, ptr noundef nonnull align 8 dereferenceable(8) %6) #15
  br i1 %25, label %26, label %39

26:                                               ; preds = %22
  %27 = call noundef ptr @_ZNK9__gnu_cxx17__normal_iteratorIPN12colvarmodule4atomESt6vectorIS2_SaIS2_EEEptEv(ptr noundef nonnull align 8 dereferenceable(8) %5) #15
  %28 = getelementptr inbounds %"class.colvarmodule::atom", ptr %27, i32 0, i32 2
  %29 = load double, ptr %28, align 8
  %30 = getelementptr inbounds %"class.colvarmodule::atom_group", ptr %9, i32 0, i32 17
  %31 = load double, ptr %30, align 8
  %32 = fdiv double %29, %31
  %33 = load ptr, ptr %4, align 8
  call void @_ZmldRKN12colvarmodule7rvectorE(ptr dead_on_unwind writable sret(%"class.colvarmodule::rvector") align 8 %7, double noundef %32, ptr noundef nonnull align 8 dereferenceable(24) %33)
  %34 = call noundef ptr @_ZNK9__gnu_cxx17__normal_iteratorIPN12colvarmodule4atomESt6vectorIS2_SaIS2_EEEptEv(ptr noundef nonnull align 8 dereferenceable(8) %5) #15
  %35 = getelementptr inbounds %"class.colvarmodule::atom", ptr %34, i32 0, i32 7
  call void @llvm.memcpy.p0.p0.i64(ptr align 8 %35, ptr align 8 %7, i64 24, i1 false)
  br label %36

36:                                               ; preds = %26
  %37 = call ptr @_ZN9__gnu_cxx17__normal_iteratorIPN12colvarmodule4atomESt6vectorIS2_SaIS2_EEEppEi(ptr noundef nonnull align 8 dereferenceable(8) %5, i32 noundef 0) #15
  %38 = getelementptr inbounds %"class.__gnu_cxx::__normal_iterator.69", ptr %8, i32 0, i32 0
  store ptr %37, ptr %38, align 8
  br label %22, !llvm.loop !72

39:                                               ; preds = %22
  br label %40

40:                                               ; preds = %39, %14, %13
  ret void
}