; Function Attrs: mustprogress nofree norecurse nosync nounwind memory(readwrite, inaccessiblemem: none) uwtable
define void @_ZN12colvarmodule10atom_group21set_weighted_gradientERKNS_7rvectorE(ptr nocapture noundef nonnull align 8 dereferenceable(1440) %0, ptr nocapture noundef nonnull readonly align 8 dereferenceable(24) %1) local_unnamed_addr #14 align 2 {
  %3 = getelementptr inbounds i8, ptr %0, i64 628
  %4 = load i8, ptr %3, align 4
  %5 = trunc i8 %4 to i1
  br i1 %5, label %.loopexit, label %6

6:                                                ; preds = %2
  %7 = getelementptr inbounds i8, ptr %0, i64 1368
  tail call void @llvm.memcpy.p0.p0.i64(ptr noundef nonnull align 8 dereferenceable(24) %7, ptr noundef nonnull align 8 dereferenceable(24) %1, i64 24, i1 false)
  %8 = getelementptr inbounds i8, ptr %0, i64 368
  %9 = load ptr, ptr %8, align 8
  %10 = getelementptr inbounds i8, ptr %9, i64 257
  %11 = load i8, ptr %10, align 1
  %12 = trunc i8 %11 to i1
  br i1 %12, label %.loopexit, label %13

13:                                               ; preds = %6
  %14 = getelementptr inbounds i8, ptr %0, i64 504
  %15 = load ptr, ptr %14, align 8
  %16 = getelementptr inbounds i8, ptr %0, i64 512
  %17 = load ptr, ptr %16, align 8
  %.not8 = icmp eq ptr %15, %17
  br i1 %.not8, label %.loopexit, label %.lr.ph

.lr.ph:                                           ; preds = %13
  %18 = getelementptr inbounds i8, ptr %0, i64 1272
  %19 = getelementptr inbounds i8, ptr %1, i64 16
  br label %20

20:                                               ; preds = %.lr.ph, %20
  %.sroa.04.09 = phi ptr [ %15, %.lr.ph ], [ %32, %20 ]
  %21 = getelementptr inbounds i8, ptr %.sroa.04.09, i64 8
  %22 = load double, ptr %21, align 8
  %23 = load double, ptr %18, align 8
  %24 = fdiv double %22, %23
  %25 = load double, ptr %19, align 8, !noalias !175
  %26 = fmul double %24, %25
  %27 = getelementptr inbounds i8, ptr %.sroa.04.09, i64 96
  %28 = load <2 x double>, ptr %1, align 8, !noalias !175
  %29 = insertelement <2 x double> poison, double %24, i64 0
  %30 = shufflevector <2 x double> %29, <2 x double> poison, <2 x i32> zeroinitializer
  %31 = fmul <2 x double> %28, %30
  store <2 x double> %31, ptr %27, align 8
  %.sroa.3.0..sroa_idx = getelementptr inbounds i8, ptr %.sroa.04.09, i64 112
  store double %26, ptr %.sroa.3.0..sroa_idx, align 8
  %32 = getelementptr inbounds i8, ptr %.sroa.04.09, i64 120
  %33 = load ptr, ptr %16, align 8
  %.not = icmp eq ptr %32, %33
  br i1 %.not, label %.loopexit, label %20, !llvm.loop !178

.loopexit:                                        ; preds = %20, %13, %2, %6
  ret void
}